target datalayout = "e-m:e-p270:32:32-p271:32:32-p272:64:64-i64:64-i128:128-f80:128-n8:16:32:64-S128"
target triple = "x86_64-pc-linux-gnu"

%struct._zval_struct = type { %union._zend_value, %union.anon, %union.anon.2 }
%union._zend_value = type { i64 }
%union.anon = type { i32 }
%union.anon.2 = type { i32 }
%struct._zend_refcounted_h = type { i32, %union.anon.3 }
%union.anon.3 = type { i32 }
%struct.anon.0 = type { i8, i8, %union.anon.1 }
%union.anon.1 = type { i16 }
%struct._spl_pqueue_elem = type { %struct._zval_struct, %struct._zval_struct }
%struct._zend_refcounted = type { %struct._zend_refcounted_h }

@.str.7 = private unnamed_addr constant [5 x i8] c"data\00", align 1
@.str.8 = private unnamed_addr constant [9 x i8] c"priority\00", align 1

; Function Attrs: nounwind uwtable
define internal void @spl_pqueue_extract_helper(ptr noundef %0, ptr noundef %1, i32 noundef %2) #0 {
  %4 = alloca ptr, align 8
  %5 = alloca ptr, align 8
  %6 = alloca ptr, align 8
  %7 = alloca ptr, align 8
  %8 = alloca ptr, align 8
  %9 = alloca ptr, align 8
  %10 = alloca ptr, align 8
  %11 = alloca ptr, align 8
  %12 = alloca i32, align 4
  %13 = alloca ptr, align 8
  %14 = alloca ptr, align 8
  %15 = alloca ptr, align 8
  %16 = alloca ptr, align 8
  %17 = alloca ptr, align 8
  %18 = alloca i32, align 4
  %19 = alloca ptr, align 8
  %20 = alloca ptr, align 8
  %21 = alloca ptr, align 8
  %22 = alloca i32, align 4
  store ptr %0, ptr %10, align 8
  store ptr %1, ptr %11, align 8
  store i32 %2, ptr %12, align 4
  %23 = load i32, ptr %12, align 4
  %24 = and i32 %23, 3
  %25 = icmp eq i32 %24, 3
  br i1 %25, label %26, label %90

26:                                               ; preds = %3
  br label %27

27:                                               ; preds = %26
  %28 = call ptr @_zend_new_array_0()
  store ptr %28, ptr %13, align 8
  %29 = load ptr, ptr %10, align 8
  store ptr %29, ptr %14, align 8
  %30 = load ptr, ptr %13, align 8
  %31 = load ptr, ptr %14, align 8
  %32 = getelementptr inbounds %struct._zval_struct, ptr %31, i32 0, i32 0
  store ptr %30, ptr %32, align 8
  %33 = load ptr, ptr %14, align 8
  %34 = getelementptr inbounds %struct._zval_struct, ptr %33, i32 0, i32 1
  store i32 775, ptr %34, align 8
  br label %35

35:                                               ; preds = %27
  br label %36

36:                                               ; preds = %35
  %37 = load ptr, ptr %11, align 8
  %38 = getelementptr inbounds %struct._spl_pqueue_elem, ptr %37, i32 0, i32 0
  %39 = getelementptr inbounds %struct._zval_struct, ptr %38, i32 0, i32 1
  %40 = getelementptr inbounds %struct.anon.0, ptr %39, i32 0, i32 1
  %41 = load i8, ptr %40, align 1
  %42 = zext i8 %41 to i32
  %43 = icmp ne i32 %42, 0
  br i1 %43, label %44, label %58

44:                                               ; preds = %36
  %45 = load ptr, ptr %11, align 8
  %46 = getelementptr inbounds %struct._spl_pqueue_elem, ptr %45, i32 0, i32 0
  store ptr %46, ptr %8, align 8
  %47 = load ptr, ptr %8, align 8
  %48 = getelementptr inbounds %struct._zval_struct, ptr %47, i32 0, i32 1
  %49 = getelementptr inbounds %struct.anon.0, ptr %48, i32 0, i32 1
  %50 = load i8, ptr %49, align 1
  %51 = zext i8 %50 to i32
  %52 = icmp ne i32 %51, 0
  call void @llvm.assume(i1 %52)
  %53 = load ptr, ptr %8, align 8
  %54 = load ptr, ptr %53, align 8
  store ptr %54, ptr %7, align 8
  %55 = load ptr, ptr %7, align 8
  %56 = load i32, ptr %55, align 4
  %57 = add i32 %56, 1
  store i32 %57, ptr %55, align 4
  br label %58

58:                                               ; preds = %44, %36
  br label %59

59:                                               ; preds = %58
  %60 = load ptr, ptr %10, align 8
  %61 = load ptr, ptr %11, align 8
  %62 = getelementptr inbounds %struct._spl_pqueue_elem, ptr %61, i32 0, i32 0
  call void @add_assoc_zval_ex(ptr noundef %60, ptr noundef @.str.7, i64 noundef 4, ptr noundef %62)
  br label %63

63:                                               ; preds = %59
  %64 = load ptr, ptr %11, align 8
  %65 = getelementptr inbounds %struct._spl_pqueue_elem, ptr %64, i32 0, i32 1
  %66 = getelementptr inbounds %struct._zval_struct, ptr %65, i32 0, i32 1
  %67 = getelementptr inbounds %struct.anon.0, ptr %66, i32 0, i32 1
  %68 = load i8, ptr %67, align 1
  %69 = zext i8 %68 to i32
  %70 = icmp ne i32 %69, 0
  br i1 %70, label %71, label %85

71:                                               ; preds = %63
  %72 = load ptr, ptr %11, align 8
  %73 = getelementptr inbounds %struct._spl_pqueue_elem, ptr %72, i32 0, i32 1
  store ptr %73, ptr %9, align 8
  %74 = load ptr, ptr %9, align 8
  %75 = getelementptr inbounds %struct._zval_struct, ptr %74, i32 0, i32 1
  %76 = getelementptr inbounds %struct.anon.0, ptr %75, i32 0, i32 1
  %77 = load i8, ptr %76, align 1
  %78 = zext i8 %77 to i32
  %79 = icmp ne i32 %78, 0
  call void @llvm.assume(i1 %79)
  %80 = load ptr, ptr %9, align 8
  %81 = load ptr, ptr %80, align 8
  store ptr %81, ptr %6, align 8
  %82 = load ptr, ptr %6, align 8
  %83 = load i32, ptr %82, align 4
  %84 = add i32 %83, 1
  store i32 %84, ptr %82, align 4
  br label %85

85:                                               ; preds = %71, %63
  br label %86

86:                                               ; preds = %85
  %87 = load ptr, ptr %10, align 8
  %88 = load ptr, ptr %11, align 8
  %89 = getelementptr inbounds %struct._spl_pqueue_elem, ptr %88, i32 0, i32 1
  call void @add_assoc_zval_ex(ptr noundef %87, ptr noundef @.str.8, i64 noundef 8, ptr noundef %89)
  br label %159

90:                                               ; preds = %3
  %91 = load i32, ptr %12, align 4
  %92 = and i32 %91, 1
  %93 = icmp ne i32 %92, 0
  br i1 %93, label %94, label %124

94:                                               ; preds = %90
  br label %95

95:                                               ; preds = %94
  %96 = load ptr, ptr %10, align 8
  store ptr %96, ptr %15, align 8
  %97 = load ptr, ptr %11, align 8
  %98 = getelementptr inbounds %struct._spl_pqueue_elem, ptr %97, i32 0, i32 0
  store ptr %98, ptr %16, align 8
  %99 = load ptr, ptr %16, align 8
  %100 = getelementptr inbounds %struct._zval_struct, ptr %99, i32 0, i32 0
  %101 = load ptr, ptr %100, align 8
  store ptr %101, ptr %17, align 8
  %102 = load ptr, ptr %16, align 8
  %103 = getelementptr inbounds %struct._zval_struct, ptr %102, i32 0, i32 1
  %104 = load i32, ptr %103, align 8
  store i32 %104, ptr %18, align 4
  br label %105

105:                                              ; preds = %95
  %106 = load ptr, ptr %17, align 8
  %107 = load ptr, ptr %15, align 8
  %108 = getelementptr inbounds %struct._zval_struct, ptr %107, i32 0, i32 0
  store ptr %106, ptr %108, align 8
  %109 = load i32, ptr %18, align 4
  %110 = load ptr, ptr %15, align 8
  %111 = getelementptr inbounds %struct._zval_struct, ptr %110, i32 0, i32 1
  store i32 %109, ptr %111, align 8
  br label %112

112:                                              ; preds = %105
  %113 = load i32, ptr %18, align 4
  %114 = and i32 %113, 65280
  %115 = icmp ne i32 %114, 0
  br i1 %115, label %116, label %122

116:                                              ; preds = %112
  %117 = load ptr, ptr %17, align 8
  %118 = getelementptr inbounds %struct._zend_refcounted, ptr %117, i32 0, i32 0
  store ptr %118, ptr %4, align 8
  %119 = load ptr, ptr %4, align 8
  %120 = load i32, ptr %119, align 4
  %121 = add i32 %120, 1
  store i32 %121, ptr %119, align 4
  br label %122

122:                                              ; preds = %116, %112
  br label %123

123:                                              ; preds = %122
  br label %159

124:                                              ; preds = %90
  %125 = load i32, ptr %12, align 4
  %126 = and i32 %125, 2
  %127 = icmp ne i32 %126, 0
  br i1 %127, label %128, label %158

128:                                              ; preds = %124
  br label %129

129:                                              ; preds = %128
  %130 = load ptr, ptr %10, align 8
  store ptr %130, ptr %19, align 8
  %131 = load ptr, ptr %11, align 8
  %132 = getelementptr inbounds %struct._spl_pqueue_elem, ptr %131, i32 0, i32 1
  store ptr %132, ptr %20, align 8
  %133 = load ptr, ptr %20, align 8
  %134 = getelementptr inbounds %struct._zval_struct, ptr %133, i32 0, i32 0
  %135 = load ptr, ptr %134, align 8
  store ptr %135, ptr %21, align 8
  %136 = load ptr, ptr %20, align 8
  %137 = getelementptr inbounds %struct._zval_struct, ptr %136, i32 0, i32 1
  %138 = load i32, ptr %137, align 8
  store i32 %138, ptr %22, align 4
  br label %139

139:                                              ; preds = %129
  %140 = load ptr, ptr %21, align 8
  %141 = load ptr, ptr %19, align 8
  %142 = getelementptr inbounds %struct._zval_struct, ptr %141, i32 0, i32 0
  store ptr %140, ptr %142, align 8
  %143 = load i32, ptr %22, align 4
  %144 = load ptr, ptr %19, align 8
  %145 = getelementptr inbounds %struct._zval_struct, ptr %144, i32 0, i32 1
  store i32 %143, ptr %145, align 8
  br label %146

146:                                              ; preds = %139
  %147 = load i32, ptr %22, align 4
  %148 = and i32 %147, 65280
  %149 = icmp ne i32 %148, 0
  br i1 %149, label %150, label %156

150:                                              ; preds = %146
  %151 = load ptr, ptr %21, align 8
  %152 = getelementptr inbounds %struct._zend_refcounted, ptr %151, i32 0, i32 0
  store ptr %152, ptr %5, align 8
  %153 = load ptr, ptr %5, align 8
  %154 = load i32, ptr %153, align 4
  %155 = add i32 %154, 1
  store i32 %155, ptr %153, align 4
  br label %156

156:                                              ; preds = %150, %146
  br label %157

157:                                              ; preds = %156
  br label %159

158:                                              ; preds = %124
  unreachable

159:                                              ; preds = %157, %123, %86
  ret void
}