; Function Attrs: nounwind uwtable
define internal fastcc void @spl_pqueue_extract_helper(ptr noundef %0, ptr noundef %1, i32 noundef %2) unnamed_addr #0 {
  %4 = and i32 %2, 3
  %5 = icmp eq i32 %4, 3
  br i1 %5, label %6, label %24

6:                                                ; preds = %3
  %7 = tail call ptr @_zend_new_array_0() #14
  store ptr %7, ptr %0, align 8
  %8 = getelementptr inbounds i8, ptr %0, i64 8
  store i32 775, ptr %8, align 8
  %9 = getelementptr inbounds i8, ptr %1, i64 9
  %10 = load i8, ptr %9, align 1
  %.not44 = icmp eq i8 %10, 0
  br i1 %.not44, label %15, label %11

11:                                               ; preds = %6
  %12 = load ptr, ptr %1, align 8
  %13 = load i32, ptr %12, align 4
  %14 = add i32 %13, 1
  store i32 %14, ptr %12, align 4
  br label %15

15:                                               ; preds = %6, %11
  tail call void @add_assoc_zval_ex(ptr noundef nonnull %0, ptr noundef nonnull @.str.7, i64 noundef 4, ptr noundef nonnull %1) #14
  %16 = getelementptr inbounds i8, ptr %1, i64 16
  %17 = getelementptr inbounds i8, ptr %1, i64 25
  %18 = load i8, ptr %17, align 1
  %.not45 = icmp eq i8 %18, 0
  br i1 %.not45, label %23, label %19

19:                                               ; preds = %15
  %20 = load ptr, ptr %16, align 8
  %21 = load i32, ptr %20, align 4
  %22 = add i32 %21, 1
  store i32 %22, ptr %20, align 4
  br label %23

23:                                               ; preds = %15, %19
  tail call void @add_assoc_zval_ex(ptr noundef nonnull %0, ptr noundef nonnull @.str.8, i64 noundef 8, ptr noundef nonnull %16) #14
  br label %47

24:                                               ; preds = %3
  %25 = and i32 %2, 1
  %.not = icmp eq i32 %25, 0
  br i1 %.not, label %35, label %26

26:                                               ; preds = %24
  %27 = load ptr, ptr %1, align 8
  %28 = getelementptr inbounds i8, ptr %1, i64 8
  %29 = load i32, ptr %28, align 8
  store ptr %27, ptr %0, align 8
  %30 = getelementptr inbounds i8, ptr %0, i64 8
  store i32 %29, ptr %30, align 8
  %31 = and i32 %29, 65280
  %.not43 = icmp eq i32 %31, 0
  br i1 %.not43, label %47, label %32

32:                                               ; preds = %26
  %33 = load i32, ptr %27, align 4
  %34 = add i32 %33, 1
  store i32 %34, ptr %27, align 4
  br label %47

35:                                               ; preds = %24
  %36 = and i32 %2, 2
  %37 = icmp ne i32 %36, 0
  tail call void @llvm.assume(i1 %37)
  %38 = getelementptr inbounds i8, ptr %1, i64 16
  %39 = load ptr, ptr %38, align 8
  %40 = getelementptr inbounds i8, ptr %1, i64 24
  %41 = load i32, ptr %40, align 8
  store ptr %39, ptr %0, align 8
  %42 = getelementptr inbounds i8, ptr %0, i64 8
  store i32 %41, ptr %42, align 8
  %43 = and i32 %41, 65280
  %.not42 = icmp eq i32 %43, 0
  br i1 %.not42, label %47, label %44

44:                                               ; preds = %35
  %45 = load i32, ptr %39, align 4
  %46 = add i32 %45, 1
  store i32 %46, ptr %39, align 4
  br label %47

47:                                               ; preds = %44, %35, %32, %26, %23
  ret void
}